#include <math.h>
#include <stdio.h>
#include <stdlib.h>
#include <string.h>

int main(int argc, char* argv[])
{   int a1=1,a2=1,i=0,a,n,e,y=0;
    scanf("%d",&n);
	for(i=0;i<n;i++){
		scanf("%d",&e);
		a1=1;
		a2=1;
		if(e<=2){a=1;}else{
		for(y=0;y<e-2;y++){
			a=a1+a2;
			a1=a2;
			a2=a;
		}}
		printf("%d\n",a);
		
	}
	return 0;
}
