; ModuleID = '61/736.c'
source_filename = "61/736.c"
target datalayout = "e-m:e-p270:32:32-p271:32:32-p272:64:64-i64:64-f80:128-n8:16:32:64-S128"
target triple = "x86_64-pc-linux-gnu"

@.str = private unnamed_addr constant [3 x i8] c"%d\00", align 1
@.str.1 = private unnamed_addr constant [4 x i8] c"%d\0A\00", align 1

; Function Attrs: noinline nounwind uwtable
define dso_local i32 @main(i32 %0, i8** %1) #0 {
  %3 = alloca i32, align 4
  %4 = alloca i32, align 4
  %5 = alloca i8**, align 8
  %6 = alloca i32, align 4
  %7 = alloca i32, align 4
  %8 = alloca i32, align 4
  %9 = alloca i32, align 4
  %10 = alloca i32, align 4
  %11 = alloca i32, align 4
  %12 = alloca i32, align 4
  store i32 0, i32* %3, align 4
  store i32 %0, i32* %4, align 4
  store i8** %1, i8*** %5, align 8
  store i32 1, i32* %6, align 4
  store i32 1, i32* %7, align 4
  store i32 0, i32* %8, align 4
  store i32 0, i32* %12, align 4
  %13 = call i32 (i8*, ...) @__isoc99_scanf(i8* getelementptr inbounds ([3 x i8], [3 x i8]* @.str, i64 0, i64 0), i32* %10)
  store i32 0, i32* %8, align 4
  br label %14

14:                                               ; preds = %42, %2
  %15 = load i32, i32* %8, align 4
  %16 = load i32, i32* %10, align 4
  %17 = icmp slt i32 %15, %16
  br i1 %17, label %18, label %45

18:                                               ; preds = %14
  %19 = call i32 (i8*, ...) @__isoc99_scanf(i8* getelementptr inbounds ([3 x i8], [3 x i8]* @.str, i64 0, i64 0), i32* %11)
  store i32 1, i32* %6, align 4
  store i32 1, i32* %7, align 4
  %20 = load i32, i32* %11, align 4
  %21 = icmp sle i32 %20, 2
  br i1 %21, label %22, label %23

22:                                               ; preds = %18
  store i32 1, i32* %9, align 4
  br label %39

23:                                               ; preds = %18
  store i32 0, i32* %12, align 4
  br label %24

24:                                               ; preds = %35, %23
  %25 = load i32, i32* %12, align 4
  %26 = load i32, i32* %11, align 4
  %27 = sub nsw i32 %26, 2
  %28 = icmp slt i32 %25, %27
  br i1 %28, label %29, label %38

29:                                               ; preds = %24
  %30 = load i32, i32* %6, align 4
  %31 = load i32, i32* %7, align 4
  %32 = add nsw i32 %30, %31
  store i32 %32, i32* %9, align 4
  %33 = load i32, i32* %7, align 4
  store i32 %33, i32* %6, align 4
  %34 = load i32, i32* %9, align 4
  store i32 %34, i32* %7, align 4
  br label %35

35:                                               ; preds = %29
  %36 = load i32, i32* %12, align 4
  %37 = add nsw i32 %36, 1
  store i32 %37, i32* %12, align 4
  br label %24

38:                                               ; preds = %24
  br label %39

39:                                               ; preds = %38, %22
  %40 = load i32, i32* %9, align 4
  %41 = call i32 (i8*, ...) @printf(i8* getelementptr inbounds ([4 x i8], [4 x i8]* @.str.1, i64 0, i64 0), i32 %40)
  br label %42

42:                                               ; preds = %39
  %43 = load i32, i32* %8, align 4
  %44 = add nsw i32 %43, 1
  store i32 %44, i32* %8, align 4
  br label %14

45:                                               ; preds = %14
  ret i32 0
}

declare dso_local i32 @__isoc99_scanf(i8*, ...) #1

declare dso_local i32 @printf(i8*, ...) #1


!llvm.module.flags = !{!0}
!llvm.ident = !{!1}

!0 = !{i32 1, !"wchar_size", i32 4}
!1 = !{!"clang version 10.0.0-4ubuntu1 "}
